(lp0
(lp1
I0
aI1
aI1
aI1
aI1
aI1
aI1
aI1
aI1
aa(lp2
I0
aI1
aI1
aI4
aI0
aI3
aI1
aI1
aI1
aa(lp3
I0
aI1
aI0
aI2
aI2
aI2
aI0
aI0
aI1
aa(lp4
I0
aI1
aI0
aI1
aI3
aI0
aI0
aI0
aI1
aa(lp5
I0
aI1
aI0
aI3
aI0
aI0
aI1
aI1
aI1
aa(lp6
I0
aI1
aI1
aI1
aI1
aI1
aI1
aI1
aI1
aa.