(lp0
(lp1
I0
aI0
aI0
aI0
aI0
aI0
aI0
aI0
aI0
aI0
aI1
aI1
aI1
aI1
aI0
aI0
aI0
aI0
aI0
aI0
aa(lp2
I0
aI0
aI0
aI0
aI0
aI0
aI0
aI1
aI1
aI1
aI1
aI0
aI0
aI1
aI1
aI1
aI1
aI1
aI1
aI0
aa(lp3
I0
aI0
aI0
aI0
aI0
aI0
aI0
aI1
aI0
aI0
aI1
aI0
aI3
aI1
aI1
aI0
aI0
aI0
aI1
aI0
aa(lp4
I0
aI0
aI0
aI0
aI0
aI0
aI0
aI1
aI0
aI0
aI2
aI0
aI0
aI1
aI0
aI0
aI1
aI0
aI1
aI0
aa(lp5
I0
aI1
aI1
aI1
aI1
aI1
aI1
aI1
aI3
aI5
aI3
aI5
aI5
aI1
aI2
aI1
aI1
aI0
aI1
aI0
aa(lp6
I0
aI1
aI0
aI0
aI0
aI0
aI0
aI0
aI0
aI0
aI1
aI0
aI0
aI0
aI0
aI0
aI1
aI0
aI1
aI1
aa(lp7
I1
aI1
aI0
aI1
aI1
aI2
aI1
aI1
aI1
aI1
aI1
aI0
aI2
aI0
aI0
aI2
aI1
aI0
aI0
aI1
aa(lp8
I1
aI0
aI0
aI1
aI0
aI3
aI0
aI5
aI0
aI0
aI1
aI1
aI1
aI1
aI0
aI0
aI1
aI1
aI0
aI1
aa(lp9
I1
aI0
aI1
aI1
aI2
aI5
aI0
aI5
aI2
aI0
aI1
aI0
aI0
aI0
aI1
aI0
aI0
aI1
aI0
aI1
aa(lp10
I1
aI0
aI1
aI0
aI0
aI3
aI3
aI3
aI3
aI3
aI2
aI4
aI2
aI0
aI0
aI0
aI0
aI1
aI0
aI1
aa(lp11
I1
aI0
aI1
aI0
aI0
aI0
aI1
aI1
aI0
aI0
aI1
aI1
aI1
aI1
aI1
aI1
aI1
aI1
aI0
aI1
aa(lp12
I1
aI0
aI1
aI1
aI0
aI0
aI1
aI1
aI0
aI0
aI1
aI0
aI0
aI0
aI0
aI0
aI0
aI0
aI0
aI1
aa(lp13
I1
aI0
aI0
aI1
aI1
aI1
aI1
aI1
aI1
aI1
aI1
aI0
aI1
aI1
aI1
aI1
aI1
aI1
aI1
aI1
aa(lp14
I1
aI1
aI0
aI0
aI0
aI0
aI0
aI0
aI0
aI0
aI0
aI0
aI1
aI0
aI0
aI0
aI0
aI0
aI0
aI0
aa(lp15
I0
aI1
aI1
aI1
aI1
aI1
aI1
aI1
aI1
aI1
aI1
aI1
aI1
aI0
aI0
aI0
aI0
aI0
aI0
aI0
aa.