(lp0
(lp1
I0
aI1
aI1
aI1
aI1
aI0
aI0
aI0
aI0
aI0
aa(lp2
I1
aI1
aI0
aI0
aI1
aI1
aI1
aI0
aI0
aI0
aa(lp3
I1
aI4
aI2
aI0
aI0
aI0
aI1
aI0
aI0
aI0
aa(lp4
I1
aI1
aI1
aI0
aI2
aI0
aI1
aI0
aI0
aI0
aa(lp5
I0
aI1
aI0
aI0
aI1
aI1
aI1
aI1
aI1
aI1
aa(lp6
I0
aI1
aI0
aI0
aI2
aI3
aI3
aI3
aI3
aI1
aa(lp7
I0
aI1
aI0
aI0
aI1
aI0
aI1
aI1
aI1
aI1
aa(lp8
I0
aI1
aI1
aI0
aI1
aI0
aI1
aI0
aI0
aI0
aa(lp9
I0
aI1
aI0
aI2
aI1
aI0
aI1
aI0
aI0
aI0
aa(lp10
I0
aI1
aI0
aI0
aI0
aI0
aI1
aI0
aI0
aI0
aa(lp11
I0
aI1
aI0
aI0
aI1
aI1
aI1
aI0
aI0
aI0
aa(lp12
I0
aI1
aI1
aI1
aI1
aI0
aI0
aI0
aI0
aI0
aa.