(lp0
(lp1
I1
aI1
aI1
aI1
aI1
aI1
aI1
aI1
aa(lp2
I1
aI0
aI0
aI0
aI0
aI0
aI0
aI1
aa(lp3
I1
aI0
aI3
aI5
aI5
aI2
aI4
aI1
aa(lp4
I1
aI0
aI0
aI0
aI0
aI0
aI0
aI1
aa(lp5
I1
aI1
aI1
aI1
aI1
aI0
aI0
aI1
aa(lp6
I0
aI0
aI0
aI0
aI1
aI1
aI1
aI1
aa.