(lp0
(lp1
I0
aI1
aI1
aI1
aI1
aI0
aI1
aI1
aI1
aI1
aI0
aa(lp2
I0
aI1
aI0
aI0
aI1
aI1
aI1
aI0
aI0
aI1
aI1
aa(lp3
I0
aI1
aI0
aI0
aI0
aI0
aI0
aI0
aI4
aI0
aI1
aa(lp4
I1
aI1
aI3
aI3
aI1
aI1
aI1
aI0
aI0
aI0
aI1
aa(lp5
I1
aI0
aI0
aI0
aI0
aI0
aI0
aI1
aI0
aI0
aI1
aa(lp6
I1
aI3
aI3
aI3
aI1
aI2
aI0
aI0
aI1
aI0
aI1
aa(lp7
I1
aI0
aI1
aI1
aI0
aI2
aI2
aI0
aI2
aI0
aI1
aa(lp8
I1
aI0
aI0
aI2
aI0
aI0
aI0
aI0
aI1
aI1
aI1
aa(lp9
I1
aI1
aI1
aI1
aI0
aI0
aI1
aI1
aI1
aI0
aI0
aa(lp10
I0
aI0
aI0
aI1
aI1
aI1
aI1
aI0
aI0
aI0
aI0
aa.