(lp0
S'Meshed Squares'
p1
aS'Square version 3'
p2
aS'clover version 4'
p3
aS'prefab #5'
p4
aS'Figure eight'
p5
aS'Skewsymmetric pattern #6'
p6
aS'Butterfly #3'
p7
aS'Crossed Swords version 10'
p8
aS'Interlocked goals'
p9
aS'Egg'
p10
a.