(lp0
S'Level 1'
p1
aS'Level 2'
p2
aS'Level 3'
p3
aS'Level 4'
p4
aS'Level 5'
p5
aS'Level 6'
p6
aS'Level 7'
p7
aS'Level 8'
p8
aS'Level 9'
p9
aS'Level 10'
p10
aS'Level 11'
p11
aS'Level 12'
p12
aS'Level 13'
p13
aS'Level 14'
p14
aS'Level 15'
p15
aS'Level 16'
p16
aS'Level 17'
p17
aS'Level 18'
p18
aS'Level 19'
p19
aS'Level 20'
p20
aS'Level 21'
p21
aS'Level 22'
p22
aS'Level 23'
p23
aS'Level 24'
p24
aS'Level 25'
p25
aS'Level 26'
p26
aS'Level 27'
p27
aS'Level 28'
p28
aS'Level 29'
p29
aS'Level 30'
p30
aS'Level 31'
p31
aS'Level 32'
p32
aS'Level 33'
p33
aS'Level 34'
p34
aS'Level 35'
p35
aS'Level 36'
p36
aS'Level 37'
p37
aS'Level 38'
p38
aS'Level 39'
p39
aS'Level 40'
p40
aS'Level 41'
p41
aS'Level 42'
p42
aS'Level 43'
p43
aS'Duh!'
p44
aS'Level 45'
p45
aS'Level 46'
p46
aS'Level 47'
p47
aS'Level 48'
p48
aS'Level 49'
p49
aS'Level 50'
p50
aS'Level 51'
p51
aS'Level 52'
p52
aS'Level 53'
p53
aS'Level 54'
p54
aS'Level 55'
p55
aS'Level 56'
p56
aS'Level 57'
p57
aS'Level 58'
p58
aS'Level 59'
p59
aS'Level 60'
p60
aS'Level 61'
p61
aS'Level 62'
p62
aS'Level 63'
p63
aS'Level 64'
p64
aS'Level 65'
p65
aS'Level 66'
p66
aS'Level 67'
p67
aS'Level 68'
p68
aS'Level 69'
p69
aS'Level 70'
p70
aS'Level 71'
p71
aS'Level 72'
p72
aS'Level 73'
p73
aS'Level 74'
p74
aS'Level 75'
p75
aS'Level 76'
p76
aS'Level 77'
p77
aS'Level 78'
p78
aS'Level 79'
p79
aS'Level 80'
p80
aS'Level 81'
p81
aS'Level 82'
p82
aS'Level 83'
p83
aS'Level 84'
p84
aS'Level 85'
p85
aS'Level 86'
p86
aS'Level 87'
p87
aS'Level 88'
p88
aS'Level 89'
p89
aS'Level 90'
p90
aS'Level 91'
p91
aS'Level 92'
p92
aS'Level 93'
p93
aS'Level 94'
p94
aS'Level 95'
p95
aS'Level 96'
p96
aS'Level 97'
p97
aS'Level 98'
p98
aS'Level 99'
p99
aS'Level 100'
p100
aS'Lockdown'
p101
aS'Level 102'
p102
aS'Level 103'
p103
aS'Level 104'
p104
aS'Level 105'
p105
aS'Level 106'
p106
aS'Level 107'
p107
aS'Level 108'
p108
aS'Level 109'
p109
aS'Level 110'
p110
aS'Level 111'
p111
aS'Level 112'
p112
aS'Level 113'
p113
aS'Level 114'
p114
aS'Level 115'
p115
aS'Level 116'
p116
aS'Level 117'
p117
aS'Level 118'
p118
aS'Level 119'
p119
aS'Level 120'
p120
aS'Level 121'
p121
aS'Level 122'
p122
aS'Level 123'
p123
aS'Level 124'
p124
aS'Level 125'
p125
aS'Level 126'
p126
aS'Level 127'
p127
aS'Level 128'
p128
aS'Level 129'
p129
aS'Level 130'
p130
aS'Level 131'
p131
aS'Level 132'
p132
aS'Level 133'
p133
aS'Level 134'
p134
aS'Level 135'
p135
aS'Level 136'
p136
aS'Level 137'
p137
aS'Level 138'
p138
aS'Level 139'
p139
aS'Level 140'
p140
aS'Level 141'
p141
aS'Level 142'
p142
aS'Level 143'
p143
aS'Level 144'
p144
aS'Level 145'
p145
aS'Level 146'
p146
aS'reduction of (Mas Sasquatch 8)'
p147
aS'from (Original 18)'
p148
aS'from (Boxxle 43)'
p149
aS'from (Original 47)'
p150
aS'from (Original 47)'
p151
aS'reduced (Mas Sasquatch 23)'
p152
aS'reduction of (Revenge 306)'
p153
aS'Take the long way home.'
p154
aS'The Dungeon'
p155
a.